target datalayout = "e-m:e-p270:32:32-p271:32:32-p272:64:64-i64:64-i128:128-f80:128-n8:16:32:64-S128"
target triple = "x86_64-unknown-linux-gnu"

%"class.std::shared_ptr" = type { %"class.std::__shared_ptr" }
%"class.std::__shared_ptr" = type { ptr, %"class.std::__shared_count" }
%"class.std::__shared_count" = type { ptr }
%"class.std::__cxx11::basic_string" = type { %"struct.std::__cxx11::basic_string<char>::_Alloc_hider", i64, %union.anon.111 }
%"struct.std::__cxx11::basic_string<char>::_Alloc_hider" = type { ptr }
%union.anon.111 = type { i64, [8 x i8] }
%"class.OpenColorIO_v2_4dev::CPUProcessor::Impl" = type { %"class.std::shared_ptr", %"class.std::vector.137", %"class.std::shared_ptr", i32, i32, i8, i8, i8, %"class.std::__cxx11::basic_string", %"class.std::mutex" }
%"class.std::vector.137" = type { %"struct.std::_Vector_base.138" }
%"struct.std::_Vector_base.138" = type { %"struct.std::_Vector_base<std::shared_ptr<const OpenColorIO_v2_4dev::OpCPU>, std::allocator<std::shared_ptr<const OpenColorIO_v2_4dev::OpCPU>>>::_Vector_impl" }
%"struct.std::_Vector_base<std::shared_ptr<const OpenColorIO_v2_4dev::OpCPU>, std::allocator<std::shared_ptr<const OpenColorIO_v2_4dev::OpCPU>>>::_Vector_impl" = type { %"struct.std::_Vector_base<std::shared_ptr<const OpenColorIO_v2_4dev::OpCPU>, std::allocator<std::shared_ptr<const OpenColorIO_v2_4dev::OpCPU>>>::_Vector_impl_data" }
%"struct.std::_Vector_base<std::shared_ptr<const OpenColorIO_v2_4dev::OpCPU>, std::allocator<std::shared_ptr<const OpenColorIO_v2_4dev::OpCPU>>>::_Vector_impl_data" = type { ptr, ptr, ptr }
%"class.std::mutex" = type { %"class.std::__mutex_base" }
%"class.std::__mutex_base" = type { %union.pthread_mutex_t }
%union.pthread_mutex_t = type { %struct.__pthread_mutex_s }
%struct.__pthread_mutex_s = type { i32, i32, i32, i32, i32, i16, i16, %struct.__pthread_internal_list }
%struct.__pthread_internal_list = type { ptr, ptr }

; Function Attrs: mustprogress nounwind uwtable
define linkonce_odr hidden noundef ptr @_ZNKSt12__shared_ptrIKN19OpenColorIO_v2_4dev5OpCPUELN9__gnu_cxx12_Lock_policyE2EE3getEv(ptr noundef nonnull align 8 dereferenceable(16) %this) #5 comdat align 2 {
entry:
  %this.addr = alloca ptr, align 8
  store ptr %this, ptr %this.addr, align 8
  %this1 = load ptr, ptr %this.addr, align 8
  %_M_ptr = getelementptr inbounds %"class.std::__shared_ptr", ptr %this1, i32 0, i32 0
  %0 = load ptr, ptr %_M_ptr, align 8
  ret ptr %0
}

; Function Attrs: mustprogress nounwind uwtable
define linkonce_odr hidden noundef ptr @_ZNKSt19__shared_ptr_accessIKN19OpenColorIO_v2_4dev5OpCPUELN9__gnu_cxx12_Lock_policyE2ELb0ELb0EE6_M_getEv(ptr noundef nonnull align 1 dereferenceable(1) %this) #5 comdat align 2 {
entry:
  %this.addr = alloca ptr, align 8
  store ptr %this, ptr %this.addr, align 8
  %this1 = load ptr, ptr %this.addr, align 8
  %call = call noundef ptr @_ZNKSt12__shared_ptrIKN19OpenColorIO_v2_4dev5OpCPUELN9__gnu_cxx12_Lock_policyE2EE3getEv(ptr noundef nonnull align 8 dereferenceable(16) %this1) #3
  ret ptr %call
}

; Function Attrs: mustprogress nounwind uwtable
define linkonce_odr hidden noundef nonnull align 8 dereferenceable(16) ptr @_ZNKSt6vectorISt10shared_ptrIKN19OpenColorIO_v2_4dev5OpCPUEESaIS4_EEixEm(ptr noundef nonnull align 8 dereferenceable(24) %this, i64 noundef %__n) #5 comdat align 2 {
entry:
  %this.addr = alloca ptr, align 8
  %__n.addr = alloca i64, align 8
  store ptr %this, ptr %this.addr, align 8
  store i64 %__n, ptr %__n.addr, align 8
  %this1 = load ptr, ptr %this.addr, align 8
  %_M_impl = getelementptr inbounds %"struct.std::_Vector_base.138", ptr %this1, i32 0, i32 0
  %_M_start = getelementptr inbounds %"struct.std::_Vector_base<std::shared_ptr<const OpenColorIO_v2_4dev::OpCPU>, std::allocator<std::shared_ptr<const OpenColorIO_v2_4dev::OpCPU>>>::_Vector_impl_data", ptr %_M_impl, i32 0, i32 0
  %0 = load ptr, ptr %_M_start, align 8
  %1 = load i64, ptr %__n.addr, align 8
  %add.ptr = getelementptr inbounds %"class.std::shared_ptr", ptr %0, i64 %1
  ret ptr %add.ptr
}

; Function Attrs: mustprogress nounwind uwtable
define linkonce_odr hidden noundef i64 @_ZNKSt6vectorISt10shared_ptrIKN19OpenColorIO_v2_4dev5OpCPUEESaIS4_EE4sizeEv(ptr noundef nonnull align 8 dereferenceable(24) %this) #5 comdat align 2 {
entry:
  %this.addr = alloca ptr, align 8
  store ptr %this, ptr %this.addr, align 8
  %this1 = load ptr, ptr %this.addr, align 8
  %_M_impl = getelementptr inbounds %"struct.std::_Vector_base.138", ptr %this1, i32 0, i32 0
  %_M_finish = getelementptr inbounds %"struct.std::_Vector_base<std::shared_ptr<const OpenColorIO_v2_4dev::OpCPU>, std::allocator<std::shared_ptr<const OpenColorIO_v2_4dev::OpCPU>>>::_Vector_impl_data", ptr %_M_impl, i32 0, i32 1
  %0 = load ptr, ptr %_M_finish, align 8
  %_M_impl2 = getelementptr inbounds %"struct.std::_Vector_base.138", ptr %this1, i32 0, i32 0
  %_M_start = getelementptr inbounds %"struct.std::_Vector_base<std::shared_ptr<const OpenColorIO_v2_4dev::OpCPU>, std::allocator<std::shared_ptr<const OpenColorIO_v2_4dev::OpCPU>>>::_Vector_impl_data", ptr %_M_impl2, i32 0, i32 0
  %1 = load ptr, ptr %_M_start, align 8
  %sub.ptr.lhs.cast = ptrtoint ptr %0 to i64
  %sub.ptr.rhs.cast = ptrtoint ptr %1 to i64
  %sub.ptr.sub = sub i64 %sub.ptr.lhs.cast, %sub.ptr.rhs.cast
  %sub.ptr.div = sdiv exact i64 %sub.ptr.sub, 16
  ret i64 %sub.ptr.div
}

; Function Attrs: mustprogress nounwind uwtable
define linkonce_odr hidden noundef ptr @_ZNKSt19__shared_ptr_accessIKN19OpenColorIO_v2_4dev5OpCPUELN9__gnu_cxx12_Lock_policyE2ELb0ELb0EEptEv(ptr noundef nonnull align 1 dereferenceable(1) %this) #5 comdat align 2 {
entry:
  %this.addr = alloca ptr, align 8
  store ptr %this, ptr %this.addr, align 8
  %this1 = load ptr, ptr %this.addr, align 8
  %call = call noundef ptr @_ZNKSt19__shared_ptr_accessIKN19OpenColorIO_v2_4dev5OpCPUELN9__gnu_cxx12_Lock_policyE2ELb0ELb0EE6_M_getEv(ptr noundef nonnull align 1 dereferenceable(1) %this1) #3
  ret ptr %call
}

; Function Attrs: mustprogress uwtable
define void @_ZNK19OpenColorIO_v2_4dev12CPUProcessor4Impl9applyRGBAEPf(ptr noundef nonnull align 8 dereferenceable(144) %this, ptr noundef %pixel) #4 align 2 {
entry:
  %this.addr = alloca ptr, align 8
  %pixel.addr = alloca ptr, align 8
  %numOps = alloca i64, align 8
  %i = alloca i64, align 8
  store ptr %this, ptr %this.addr, align 8
  store ptr %pixel, ptr %pixel.addr, align 8
  %this1 = load ptr, ptr %this.addr, align 8
  %m_inBitDepthOp = getelementptr inbounds %"class.OpenColorIO_v2_4dev::CPUProcessor::Impl", ptr %this1, i32 0, i32 0
  %call = call noundef ptr @_ZNKSt19__shared_ptr_accessIKN19OpenColorIO_v2_4dev5OpCPUELN9__gnu_cxx12_Lock_policyE2ELb0ELb0EEptEv(ptr noundef nonnull align 1 dereferenceable(1) %m_inBitDepthOp) #3
  %0 = load ptr, ptr %pixel.addr, align 8
  %1 = load ptr, ptr %pixel.addr, align 8
  %vtable = load ptr, ptr %call, align 8
  %vfn = getelementptr inbounds ptr, ptr %vtable, i64 2
  %2 = load ptr, ptr %vfn, align 8
  call void %2(ptr noundef nonnull align 8 dereferenceable(8) %call, ptr noundef %0, ptr noundef %1, i64 noundef 1)
  %m_cpuOps = getelementptr inbounds %"class.OpenColorIO_v2_4dev::CPUProcessor::Impl", ptr %this1, i32 0, i32 1
  %call2 = call noundef i64 @_ZNKSt6vectorISt10shared_ptrIKN19OpenColorIO_v2_4dev5OpCPUEESaIS4_EE4sizeEv(ptr noundef nonnull align 8 dereferenceable(24) %m_cpuOps) #3
  store i64 %call2, ptr %numOps, align 8
  store i64 0, ptr %i, align 8
  br label %for.cond

for.cond:                                         ; preds = %for.inc, %entry
  %3 = load i64, ptr %i, align 8
  %4 = load i64, ptr %numOps, align 8
  %cmp = icmp ult i64 %3, %4
  br i1 %cmp, label %for.body, label %for.end

for.body:                                         ; preds = %for.cond
  %m_cpuOps3 = getelementptr inbounds %"class.OpenColorIO_v2_4dev::CPUProcessor::Impl", ptr %this1, i32 0, i32 1
  %5 = load i64, ptr %i, align 8
  %call4 = call noundef nonnull align 8 dereferenceable(16) ptr @_ZNKSt6vectorISt10shared_ptrIKN19OpenColorIO_v2_4dev5OpCPUEESaIS4_EEixEm(ptr noundef nonnull align 8 dereferenceable(24) %m_cpuOps3, i64 noundef %5) #3
  %call5 = call noundef ptr @_ZNKSt19__shared_ptr_accessIKN19OpenColorIO_v2_4dev5OpCPUELN9__gnu_cxx12_Lock_policyE2ELb0ELb0EEptEv(ptr noundef nonnull align 1 dereferenceable(1) %call4) #3
  %6 = load ptr, ptr %pixel.addr, align 8
  %7 = load ptr, ptr %pixel.addr, align 8
  %vtable6 = load ptr, ptr %call5, align 8
  %vfn7 = getelementptr inbounds ptr, ptr %vtable6, i64 2
  %8 = load ptr, ptr %vfn7, align 8
  call void %8(ptr noundef nonnull align 8 dereferenceable(8) %call5, ptr noundef %6, ptr noundef %7, i64 noundef 1)
  br label %for.inc

for.inc:                                          ; preds = %for.body
  %9 = load i64, ptr %i, align 8
  %inc = add i64 %9, 1
  store i64 %inc, ptr %i, align 8
  br label %for.cond, !llvm.loop !11

for.end:                                          ; preds = %for.cond
  %m_outBitDepthOp = getelementptr inbounds %"class.OpenColorIO_v2_4dev::CPUProcessor::Impl", ptr %this1, i32 0, i32 2
  %call8 = call noundef ptr @_ZNKSt19__shared_ptr_accessIKN19OpenColorIO_v2_4dev5OpCPUELN9__gnu_cxx12_Lock_policyE2ELb0ELb0EEptEv(ptr noundef nonnull align 1 dereferenceable(1) %m_outBitDepthOp) #3
  %10 = load ptr, ptr %pixel.addr, align 8
  %11 = load ptr, ptr %pixel.addr, align 8
  %vtable9 = load ptr, ptr %call8, align 8
  %vfn10 = getelementptr inbounds ptr, ptr %vtable9, i64 2
  %12 = load ptr, ptr %vfn10, align 8
  call void %12(ptr noundef nonnull align 8 dereferenceable(8) %call8, ptr noundef %10, ptr noundef %11, i64 noundef 1)
  ret void
}