; Function Attrs: mustprogress uwtable
define void @_ZNK19OpenColorIO_v2_4dev12CPUProcessor4Impl9applyRGBAEPf(ptr nocapture noundef nonnull readonly align 8 dereferenceable(144) %this, ptr noundef %pixel) local_unnamed_addr #3 align 2 {
entry:
  %0 = load ptr, ptr %this, align 8
  %vtable = load ptr, ptr %0, align 8
  %vfn = getelementptr inbounds i8, ptr %vtable, i64 16
  %1 = load ptr, ptr %vfn, align 8
  tail call void %1(ptr noundef nonnull align 8 dereferenceable(8) %0, ptr noundef %pixel, ptr noundef %pixel, i64 noundef 1)
  %m_cpuOps = getelementptr inbounds i8, ptr %this, i64 16
  %_M_finish.i = getelementptr inbounds i8, ptr %this, i64 24
  %2 = load ptr, ptr %_M_finish.i, align 8
  %3 = load ptr, ptr %m_cpuOps, align 8
  %cmp8.not = icmp eq ptr %2, %3
  br i1 %cmp8.not, label %for.end, label %for.body.preheader

for.body.preheader:                               ; preds = %entry
  %sub.ptr.lhs.cast.i = ptrtoint ptr %2 to i64
  %sub.ptr.rhs.cast.i = ptrtoint ptr %3 to i64
  %sub.ptr.sub.i = sub i64 %sub.ptr.lhs.cast.i, %sub.ptr.rhs.cast.i
  %sub.ptr.div.i = ashr exact i64 %sub.ptr.sub.i, 4
  %umax = tail call i64 @llvm.umax.i64(i64 %sub.ptr.div.i, i64 1)
  br label %for.body

for.body:                                         ; preds = %for.body.preheader, %for.body
  %i.09 = phi i64 [ %inc, %for.body ], [ 0, %for.body.preheader ]
  %4 = load ptr, ptr %m_cpuOps, align 8
  %add.ptr.i = getelementptr inbounds %"class.std::shared_ptr", ptr %4, i64 %i.09
  %5 = load ptr, ptr %add.ptr.i, align 8
  %vtable6 = load ptr, ptr %5, align 8
  %vfn7 = getelementptr inbounds i8, ptr %vtable6, i64 16
  %6 = load ptr, ptr %vfn7, align 8
  tail call void %6(ptr noundef nonnull align 8 dereferenceable(8) %5, ptr noundef %pixel, ptr noundef %pixel, i64 noundef 1)
  %inc = add nuw i64 %i.09, 1
  %exitcond.not = icmp eq i64 %inc, %umax
  br i1 %exitcond.not, label %for.end, label %for.body, !llvm.loop !142

for.end:                                          ; preds = %for.body, %entry
  %m_outBitDepthOp = getelementptr inbounds i8, ptr %this, i64 40
  %7 = load ptr, ptr %m_outBitDepthOp, align 8
  %vtable9 = load ptr, ptr %7, align 8
  %vfn10 = getelementptr inbounds i8, ptr %vtable9, i64 16
  %8 = load ptr, ptr %vfn10, align 8
  tail call void %8(ptr noundef nonnull align 8 dereferenceable(8) %7, ptr noundef %pixel, ptr noundef %pixel, i64 noundef 1)
  ret void
}